target datalayout = "e-m:e-p270:32:32-p271:32:32-p272:64:64-i64:64-i128:128-f80:128-n8:16:32:64-S128"
target triple = "x86_64-pc-linux-gnu"

%struct._zval_struct = type { %union._zend_value, %union.anon, %union.anon.2 }
%union._zend_value = type { i64 }
%union.anon = type { i32 }
%union.anon.2 = type { i32 }
%struct._zend_array = type { %struct._zend_refcounted_h, %union.anon.4, i32, %union.anon.6, i32, i32, i32, i32, i64, ptr }
%struct._zend_refcounted_h = type { i32, %union.anon.3 }
%union.anon.3 = type { i32 }
%union.anon.4 = type { i32 }
%union.anon.6 = type { ptr }
%struct._zend_execute_data = type { ptr, ptr, ptr, ptr, %struct._zval_struct, ptr, ptr, ptr, ptr }
%struct.anon.0 = type { i8, i8, %union.anon.1 }
%union.anon.1 = type { i16 }
%struct._zend_refcounted = type { %struct._zend_refcounted_h }

@zend_empty_array = external constant %struct._zend_array, align 8

; Function Attrs: alwaysinline nounwind uwtable
define internal zeroext i8 @zval_get_type(ptr noundef %0) #5 {
  %2 = alloca ptr, align 8
  store ptr %0, ptr %2, align 8, !tbaa !13
  %3 = load ptr, ptr %2, align 8, !tbaa !13
  %4 = getelementptr inbounds nuw %struct._zval_struct, ptr %3, i32 0, i32 1
  %5 = getelementptr inbounds nuw %struct.anon.0, ptr %4, i32 0, i32 0
  %6 = load i8, ptr %5, align 8, !tbaa !17
  ret i8 %6
}

; Function Attrs: alwaysinline nounwind uwtable
define internal i32 @zend_gc_addref(ptr noundef %0) #5 {
  %2 = alloca ptr, align 8
  store ptr %0, ptr %2, align 8, !tbaa !27
  br label %3

3:                                                ; preds = %1
  br label %4

4:                                                ; preds = %3
  %5 = load ptr, ptr %2, align 8, !tbaa !27
  %6 = getelementptr inbounds nuw %struct._zend_refcounted_h, ptr %5, i32 0, i32 0
  %7 = load i32, ptr %6, align 4, !tbaa !29
  %8 = add i32 %7, 1
  store i32 %8, ptr %6, align 4, !tbaa !29
  ret i32 %8
}

; Function Attrs: alwaysinline nounwind uwtable
define internal i32 @zend_hash_num_elements(ptr noundef %0) #5 {
  %2 = alloca ptr, align 8
  store ptr %0, ptr %2, align 8, !tbaa !24
  %3 = load ptr, ptr %2, align 8, !tbaa !24
  %4 = getelementptr inbounds nuw %struct._zend_array, ptr %3, i32 0, i32 5
  %5 = load i32, ptr %4, align 4, !tbaa !39
  ret i32 %5
}

; Function Attrs: alwaysinline nounwind uwtable
define internal zeroext i1 @zend_parse_arg_array(ptr noundef %0, ptr noundef %1, i1 noundef zeroext %2, i1 noundef zeroext %3) #5 {
  %5 = alloca i1, align 1
  %6 = alloca ptr, align 8
  %7 = alloca ptr, align 8
  %8 = alloca i8, align 1
  %9 = alloca i8, align 1
  store ptr %0, ptr %6, align 8, !tbaa !13
  store ptr %1, ptr %7, align 8, !tbaa !31
  %10 = zext i1 %2 to i8
  store i8 %10, ptr %8, align 1, !tbaa !20
  %11 = zext i1 %3 to i8
  store i8 %11, ptr %9, align 1, !tbaa !20
  %12 = load ptr, ptr %6, align 8, !tbaa !13
  %13 = call zeroext i8 @zval_get_type(ptr noundef %12)
  %14 = zext i8 %13 to i32
  %15 = icmp eq i32 %14, 7
  %16 = xor i1 %15, true
  %17 = xor i1 %16, true
  %18 = zext i1 %17 to i32
  %19 = sext i32 %18 to i64
  %20 = call i64 @llvm.expect.i64(i64 %19, i64 1)
  %21 = icmp ne i64 %20, 0
  br i1 %21, label %36, label %22

22:                                               ; preds = %4
  %23 = load i8, ptr %9, align 1, !tbaa !20, !range !22, !noundef !23
  %24 = trunc i8 %23 to i1
  br i1 %24, label %25, label %39

25:                                               ; preds = %22
  %26 = load ptr, ptr %6, align 8, !tbaa !13
  %27 = call zeroext i8 @zval_get_type(ptr noundef %26)
  %28 = zext i8 %27 to i32
  %29 = icmp eq i32 %28, 8
  %30 = xor i1 %29, true
  %31 = xor i1 %30, true
  %32 = zext i1 %31 to i32
  %33 = sext i32 %32 to i64
  %34 = call i64 @llvm.expect.i64(i64 %33, i64 1)
  %35 = icmp ne i64 %34, 0
  br i1 %35, label %36, label %39

36:                                               ; preds = %25, %4
  %37 = load ptr, ptr %6, align 8, !tbaa !13
  %38 = load ptr, ptr %7, align 8, !tbaa !31
  store ptr %37, ptr %38, align 8, !tbaa !13
  br label %57

39:                                               ; preds = %25, %22
  %40 = load i8, ptr %8, align 1, !tbaa !20, !range !22, !noundef !23
  %41 = trunc i8 %40 to i1
  br i1 %41, label %42, label %55

42:                                               ; preds = %39
  %43 = load ptr, ptr %6, align 8, !tbaa !13
  %44 = call zeroext i8 @zval_get_type(ptr noundef %43)
  %45 = zext i8 %44 to i32
  %46 = icmp eq i32 %45, 1
  %47 = xor i1 %46, true
  %48 = xor i1 %47, true
  %49 = zext i1 %48 to i32
  %50 = sext i32 %49 to i64
  %51 = call i64 @llvm.expect.i64(i64 %50, i64 1)
  %52 = icmp ne i64 %51, 0
  br i1 %52, label %53, label %55

53:                                               ; preds = %42
  %54 = load ptr, ptr %7, align 8, !tbaa !31
  store ptr null, ptr %54, align 8, !tbaa !13
  br label %56

55:                                               ; preds = %42, %39
  store i1 false, ptr %5, align 1
  br label %58

56:                                               ; preds = %53
  br label %57

57:                                               ; preds = %56, %36
  store i1 true, ptr %5, align 1
  br label %58

58:                                               ; preds = %57, %55
  %59 = load i1, ptr %5, align 1
  ret i1 %59
}

; Function Attrs: nounwind uwtable
define hidden void @zif_array_values(ptr noundef %0, ptr noundef %1) #0 {
  %3 = alloca ptr, align 8
  %4 = alloca ptr, align 8
  %5 = alloca ptr, align 8
  %6 = alloca ptr, align 8
  %7 = alloca i64, align 8
  %8 = alloca i32, align 4
  %9 = alloca i32, align 4
  %10 = alloca i32, align 4
  %11 = alloca i32, align 4
  %12 = alloca i32, align 4
  %13 = alloca ptr, align 8
  %14 = alloca ptr, align 8
  %15 = alloca i32, align 4
  %16 = alloca ptr, align 8
  %17 = alloca i8, align 1
  %18 = alloca i8, align 1
  %19 = alloca i32, align 4
  %20 = alloca i32, align 4
  %21 = alloca ptr, align 8
  %22 = alloca ptr, align 8
  %23 = alloca ptr, align 8
  %24 = alloca ptr, align 8
  %25 = alloca i32, align 4
  %26 = alloca ptr, align 8
  %27 = alloca ptr, align 8
  store ptr %0, ptr %3, align 8, !tbaa !11
  store ptr %1, ptr %4, align 8, !tbaa !13
  call void @llvm.lifetime.start.p0(i64 8, ptr %5) #17
  call void @llvm.lifetime.start.p0(i64 8, ptr %6) #17
  call void @llvm.lifetime.start.p0(i64 8, ptr %7) #17
  br label %28

28:                                               ; preds = %2
  call void @llvm.lifetime.start.p0(i64 4, ptr %8) #17
  store i32 0, ptr %8, align 4, !tbaa !4
  call void @llvm.lifetime.start.p0(i64 4, ptr %9) #17
  store i32 1, ptr %9, align 4, !tbaa !4
  call void @llvm.lifetime.start.p0(i64 4, ptr %10) #17
  store i32 1, ptr %10, align 4, !tbaa !4
  call void @llvm.lifetime.start.p0(i64 4, ptr %11) #17
  %29 = load ptr, ptr %3, align 8, !tbaa !11
  %30 = getelementptr inbounds nuw %struct._zend_execute_data, ptr %29, i32 0, i32 4
  %31 = getelementptr inbounds nuw %struct._zval_struct, ptr %30, i32 0, i32 2
  %32 = load i32, ptr %31, align 4, !tbaa !17
  store i32 %32, ptr %11, align 4, !tbaa !4
  call void @llvm.lifetime.start.p0(i64 4, ptr %12) #17
  store i32 0, ptr %12, align 4, !tbaa !4
  call void @llvm.lifetime.start.p0(i64 8, ptr %13) #17
  call void @llvm.lifetime.start.p0(i64 8, ptr %14) #17
  store ptr null, ptr %14, align 8, !tbaa !13
  call void @llvm.lifetime.start.p0(i64 4, ptr %15) #17
  store i32 0, ptr %15, align 4, !tbaa !4
  call void @llvm.lifetime.start.p0(i64 8, ptr %16) #17
  store ptr null, ptr %16, align 8, !tbaa !18
  call void @llvm.lifetime.start.p0(i64 1, ptr %17) #17
  store i8 0, ptr %17, align 1, !tbaa !20
  call void @llvm.lifetime.start.p0(i64 1, ptr %18) #17
  store i8 0, ptr %18, align 1, !tbaa !20
  call void @llvm.lifetime.start.p0(i64 4, ptr %19) #17
  store i32 0, ptr %19, align 4, !tbaa !4
  br label %33

33:                                               ; preds = %28
  %34 = load i32, ptr %11, align 4, !tbaa !4
  %35 = load i32, ptr %9, align 4, !tbaa !4
  %36 = icmp ult i32 %34, %35
  %37 = xor i1 %36, true
  %38 = xor i1 %37, true
  %39 = zext i1 %38 to i32
  %40 = sext i32 %39 to i64
  %41 = call i64 @llvm.expect.i64(i64 %40, i64 0)
  %42 = icmp ne i64 %41, 0
  br i1 %42, label %53, label %43

43:                                               ; preds = %33
  %44 = load i32, ptr %11, align 4, !tbaa !4
  %45 = load i32, ptr %10, align 4, !tbaa !4
  %46 = icmp ugt i32 %44, %45
  %47 = xor i1 %46, true
  %48 = xor i1 %47, true
  %49 = zext i1 %48 to i32
  %50 = sext i32 %49 to i64
  %51 = call i64 @llvm.expect.i64(i64 %50, i64 0)
  %52 = icmp ne i64 %51, 0
  br i1 %52, label %53, label %56

53:                                               ; preds = %43, %33
  %54 = load i32, ptr %9, align 4, !tbaa !4
  %55 = load i32, ptr %10, align 4, !tbaa !4
  call void @zend_wrong_parameters_count_error(i32 noundef %54, i32 noundef %55)
  store i32 1, ptr %19, align 4, !tbaa !4
  br label %119

56:                                               ; preds = %43
  %57 = load ptr, ptr %3, align 8, !tbaa !11
  %58 = getelementptr inbounds %struct._zval_struct, ptr %57, i64 4
  store ptr %58, ptr %13, align 8, !tbaa !13
  %59 = load i32, ptr %12, align 4, !tbaa !4
  %60 = add i32 %59, 1
  store i32 %60, ptr %12, align 4, !tbaa !4
  %61 = load i32, ptr %12, align 4, !tbaa !4
  %62 = load i32, ptr %9, align 4, !tbaa !4
  %63 = icmp ule i32 %61, %62
  br i1 %63, label %69, label %64

64:                                               ; preds = %56
  %65 = load i8, ptr %18, align 1, !tbaa !20, !range !22, !noundef !23
  %66 = trunc i8 %65 to i1
  %67 = zext i1 %66 to i32
  %68 = icmp eq i32 %67, 1
  br label %69

69:                                               ; preds = %64, %56
  %70 = phi i1 [ true, %56 ], [ %68, %64 ]
  call void @llvm.assume(i1 %70)
  %71 = load i32, ptr %12, align 4, !tbaa !4
  %72 = load i32, ptr %9, align 4, !tbaa !4
  %73 = icmp ugt i32 %71, %72
  br i1 %73, label %79, label %74

74:                                               ; preds = %69
  %75 = load i8, ptr %18, align 1, !tbaa !20, !range !22, !noundef !23
  %76 = trunc i8 %75 to i1
  %77 = zext i1 %76 to i32
  %78 = icmp eq i32 %77, 0
  br label %79

79:                                               ; preds = %74, %69
  %80 = phi i1 [ true, %69 ], [ %78, %74 ]
  call void @llvm.assume(i1 %80)
  %81 = load i8, ptr %18, align 1, !tbaa !20, !range !22, !noundef !23
  %82 = trunc i8 %81 to i1
  br i1 %82, label %83, label %95

83:                                               ; preds = %79
  %84 = load i32, ptr %12, align 4, !tbaa !4
  %85 = load i32, ptr %11, align 4, !tbaa !4
  %86 = icmp ugt i32 %84, %85
  %87 = xor i1 %86, true
  %88 = xor i1 %87, true
  %89 = zext i1 %88 to i32
  %90 = sext i32 %89 to i64
  %91 = call i64 @llvm.expect.i64(i64 %90, i64 0)
  %92 = icmp ne i64 %91, 0
  br i1 %92, label %93, label %94

93:                                               ; preds = %83
  br label %119

94:                                               ; preds = %83
  br label %95

95:                                               ; preds = %94, %79
  %96 = load ptr, ptr %13, align 8, !tbaa !13
  %97 = getelementptr inbounds nuw %struct._zval_struct, ptr %96, i32 1
  store ptr %97, ptr %13, align 8, !tbaa !13
  %98 = load ptr, ptr %13, align 8, !tbaa !13
  store ptr %98, ptr %14, align 8, !tbaa !13
  %99 = load ptr, ptr %14, align 8, !tbaa !13
  %100 = call zeroext i1 @zend_parse_arg_array(ptr noundef %99, ptr noundef %5, i1 noundef zeroext false, i1 noundef zeroext false)
  %101 = xor i1 %100, true
  %102 = xor i1 %101, true
  %103 = xor i1 %102, true
  %104 = zext i1 %103 to i32
  %105 = sext i32 %104 to i64
  %106 = call i64 @llvm.expect.i64(i64 %105, i64 0)
  %107 = icmp ne i64 %106, 0
  br i1 %107, label %108, label %109

108:                                              ; preds = %95
  store i32 6, ptr %15, align 4, !tbaa !4
  store i32 9, ptr %19, align 4, !tbaa !4
  br label %119

109:                                              ; preds = %95
  %110 = load i32, ptr %12, align 4, !tbaa !4
  %111 = load i32, ptr %10, align 4, !tbaa !4
  %112 = icmp eq i32 %110, %111
  br i1 %112, label %116, label %113

113:                                              ; preds = %109
  %114 = load i32, ptr %10, align 4, !tbaa !4
  %115 = icmp eq i32 %114, -1
  br label %116

116:                                              ; preds = %113, %109
  %117 = phi i1 [ true, %109 ], [ %115, %113 ]
  call void @llvm.assume(i1 %117)
  br label %118

118:                                              ; preds = %116
  br label %119

119:                                              ; preds = %118, %108, %93, %53
  %120 = load i32, ptr %19, align 4, !tbaa !4
  %121 = icmp ne i32 %120, 0
  %122 = xor i1 %121, true
  %123 = xor i1 %122, true
  %124 = zext i1 %123 to i32
  %125 = sext i32 %124 to i64
  %126 = call i64 @llvm.expect.i64(i64 %125, i64 0)
  %127 = icmp ne i64 %126, 0
  br i1 %127, label %128, label %134

128:                                              ; preds = %119
  %129 = load i32, ptr %19, align 4, !tbaa !4
  %130 = load i32, ptr %12, align 4, !tbaa !4
  %131 = load ptr, ptr %16, align 8, !tbaa !18
  %132 = load i32, ptr %15, align 4, !tbaa !4
  %133 = load ptr, ptr %14, align 8, !tbaa !13
  call void @zend_wrong_parameter_error(i32 noundef %129, i32 noundef %130, ptr noundef %131, i32 noundef %132, ptr noundef %133)
  store i32 1, ptr %20, align 4
  br label %135

134:                                              ; preds = %119
  store i32 0, ptr %20, align 4
  br label %135

135:                                              ; preds = %134, %128
  call void @llvm.lifetime.end.p0(i64 4, ptr %19) #17
  call void @llvm.lifetime.end.p0(i64 1, ptr %18) #17
  call void @llvm.lifetime.end.p0(i64 1, ptr %17) #17
  call void @llvm.lifetime.end.p0(i64 8, ptr %16) #17
  call void @llvm.lifetime.end.p0(i64 4, ptr %15) #17
  call void @llvm.lifetime.end.p0(i64 8, ptr %14) #17
  call void @llvm.lifetime.end.p0(i64 8, ptr %13) #17
  call void @llvm.lifetime.end.p0(i64 4, ptr %12) #17
  call void @llvm.lifetime.end.p0(i64 4, ptr %11) #17
  call void @llvm.lifetime.end.p0(i64 4, ptr %10) #17
  call void @llvm.lifetime.end.p0(i64 4, ptr %9) #17
  call void @llvm.lifetime.end.p0(i64 4, ptr %8) #17
  %136 = load i32, ptr %20, align 4
  switch i32 %136, label %227 [
    i32 0, label %137
  ]

137:                                              ; preds = %135
  br label %138

138:                                              ; preds = %137
  br label %139

139:                                              ; preds = %138
  %140 = load ptr, ptr %5, align 8, !tbaa !13
  %141 = getelementptr inbounds nuw %struct._zval_struct, ptr %140, i32 0, i32 0
  %142 = load ptr, ptr %141, align 8, !tbaa !17
  store ptr %142, ptr %6, align 8, !tbaa !24
  %143 = load ptr, ptr %6, align 8, !tbaa !24
  %144 = call i32 @zend_hash_num_elements(ptr noundef %143)
  %145 = zext i32 %144 to i64
  store i64 %145, ptr %7, align 8, !tbaa !15
  %146 = load i64, ptr %7, align 8, !tbaa !15
  %147 = icmp ne i64 %146, 0
  br i1 %147, label %160, label %148

148:                                              ; preds = %139
  br label %149

149:                                              ; preds = %148
  br label %150

150:                                              ; preds = %149
  call void @llvm.lifetime.start.p0(i64 8, ptr %21) #17
  %151 = load ptr, ptr %4, align 8, !tbaa !13
  store ptr %151, ptr %21, align 8, !tbaa !13
  %152 = load ptr, ptr %21, align 8, !tbaa !13
  %153 = getelementptr inbounds nuw %struct._zval_struct, ptr %152, i32 0, i32 0
  store ptr @zend_empty_array, ptr %153, align 8, !tbaa !17
  %154 = load ptr, ptr %21, align 8, !tbaa !13
  %155 = getelementptr inbounds nuw %struct._zval_struct, ptr %154, i32 0, i32 1
  store i32 7, ptr %155, align 8, !tbaa !17
  call void @llvm.lifetime.end.p0(i64 8, ptr %21) #17
  br label %156

156:                                              ; preds = %150
  br label %157

157:                                              ; preds = %156
  store i32 1, ptr %20, align 4
  br label %227

158:                                              ; No predecessors!
  br label %159

159:                                              ; preds = %158
  br label %160

160:                                              ; preds = %159, %139
  %161 = load ptr, ptr %6, align 8, !tbaa !24
  %162 = getelementptr inbounds nuw %struct._zend_array, ptr %161, i32 0, i32 1
  %163 = load i32, ptr %162, align 8, !tbaa !17
  %164 = and i32 %163, 4
  %165 = icmp ne i32 %164, 0
  br i1 %165, label %166, label %212

166:                                              ; preds = %160
  %167 = load ptr, ptr %6, align 8, !tbaa !24
  %168 = getelementptr inbounds nuw %struct._zend_array, ptr %167, i32 0, i32 4
  %169 = load i32, ptr %168, align 8, !tbaa !37
  %170 = load ptr, ptr %6, align 8, !tbaa !24
  %171 = getelementptr inbounds nuw %struct._zend_array, ptr %170, i32 0, i32 5
  %172 = load i32, ptr %171, align 4, !tbaa !39
  %173 = icmp eq i32 %169, %172
  br i1 %173, label %174, label %212

174:                                              ; preds = %166
  %175 = load ptr, ptr %6, align 8, !tbaa !24
  %176 = getelementptr inbounds nuw %struct._zend_array, ptr %175, i32 0, i32 8
  %177 = load i64, ptr %176, align 8, !tbaa !123
  %178 = load i64, ptr %7, align 8, !tbaa !15
  %179 = icmp eq i64 %177, %178
  br i1 %179, label %180, label %212

180:                                              ; preds = %174
  br label %181

181:                                              ; preds = %180
  br label %182

182:                                              ; preds = %181
  call void @llvm.lifetime.start.p0(i64 8, ptr %22) #17
  %183 = load ptr, ptr %4, align 8, !tbaa !13
  store ptr %183, ptr %22, align 8, !tbaa !13
  call void @llvm.lifetime.start.p0(i64 8, ptr %23) #17
  %184 = load ptr, ptr %5, align 8, !tbaa !13
  store ptr %184, ptr %23, align 8, !tbaa !13
  call void @llvm.lifetime.start.p0(i64 8, ptr %24) #17
  %185 = load ptr, ptr %23, align 8, !tbaa !13
  %186 = getelementptr inbounds nuw %struct._zval_struct, ptr %185, i32 0, i32 0
  %187 = load ptr, ptr %186, align 8, !tbaa !17
  store ptr %187, ptr %24, align 8, !tbaa !83
  call void @llvm.lifetime.start.p0(i64 4, ptr %25) #17
  %188 = load ptr, ptr %23, align 8, !tbaa !13
  %189 = getelementptr inbounds nuw %struct._zval_struct, ptr %188, i32 0, i32 1
  %190 = load i32, ptr %189, align 8, !tbaa !17
  store i32 %190, ptr %25, align 4, !tbaa !4
  br label %191

191:                                              ; preds = %182
  %192 = load ptr, ptr %24, align 8, !tbaa !83
  %193 = load ptr, ptr %22, align 8, !tbaa !13
  %194 = getelementptr inbounds nuw %struct._zval_struct, ptr %193, i32 0, i32 0
  store ptr %192, ptr %194, align 8, !tbaa !17
  %195 = load i32, ptr %25, align 4, !tbaa !4
  %196 = load ptr, ptr %22, align 8, !tbaa !13
  %197 = getelementptr inbounds nuw %struct._zval_struct, ptr %196, i32 0, i32 1
  store i32 %195, ptr %197, align 8, !tbaa !17
  br label %198

198:                                              ; preds = %191
  br label %199

199:                                              ; preds = %198
  %200 = load i32, ptr %25, align 4, !tbaa !4
  %201 = and i32 %200, 65280
  %202 = icmp ne i32 %201, 0
  br i1 %202, label %203, label %207

203:                                              ; preds = %199
  %204 = load ptr, ptr %24, align 8, !tbaa !83
  %205 = getelementptr inbounds nuw %struct._zend_refcounted, ptr %204, i32 0, i32 0
  %206 = call i32 @zend_gc_addref(ptr noundef %205)
  br label %207

207:                                              ; preds = %203, %199
  call void @llvm.lifetime.end.p0(i64 4, ptr %25) #17
  call void @llvm.lifetime.end.p0(i64 8, ptr %24) #17
  call void @llvm.lifetime.end.p0(i64 8, ptr %23) #17
  call void @llvm.lifetime.end.p0(i64 8, ptr %22) #17
  br label %208

208:                                              ; preds = %207
  br label %209

209:                                              ; preds = %208
  store i32 1, ptr %20, align 4
  br label %227

210:                                              ; No predecessors!
  br label %211

211:                                              ; preds = %210
  br label %212

212:                                              ; preds = %211, %174, %166, %160
  br label %213

213:                                              ; preds = %212
  br label %214

214:                                              ; preds = %213
  call void @llvm.lifetime.start.p0(i64 8, ptr %26) #17
  %215 = load ptr, ptr %6, align 8, !tbaa !24
  %216 = call ptr @zend_array_to_list(ptr noundef %215)
  store ptr %216, ptr %26, align 8, !tbaa !24
  call void @llvm.lifetime.start.p0(i64 8, ptr %27) #17
  %217 = load ptr, ptr %4, align 8, !tbaa !13
  store ptr %217, ptr %27, align 8, !tbaa !13
  %218 = load ptr, ptr %26, align 8, !tbaa !24
  %219 = load ptr, ptr %27, align 8, !tbaa !13
  %220 = getelementptr inbounds nuw %struct._zval_struct, ptr %219, i32 0, i32 0
  store ptr %218, ptr %220, align 8, !tbaa !17
  %221 = load ptr, ptr %27, align 8, !tbaa !13
  %222 = getelementptr inbounds nuw %struct._zval_struct, ptr %221, i32 0, i32 1
  store i32 775, ptr %222, align 8, !tbaa !17
  call void @llvm.lifetime.end.p0(i64 8, ptr %27) #17
  call void @llvm.lifetime.end.p0(i64 8, ptr %26) #17
  br label %223

223:                                              ; preds = %214
  br label %224

224:                                              ; preds = %223
  store i32 1, ptr %20, align 4
  br label %227

225:                                              ; No predecessors!
  br label %226

226:                                              ; preds = %225
  store i32 0, ptr %20, align 4
  br label %227

227:                                              ; preds = %226, %224, %209, %157, %135
  call void @llvm.lifetime.end.p0(i64 8, ptr %7) #17
  call void @llvm.lifetime.end.p0(i64 8, ptr %6) #17
  call void @llvm.lifetime.end.p0(i64 8, ptr %5) #17
  %228 = load i32, ptr %20, align 4
  switch i32 %228, label %230 [
    i32 0, label %229
    i32 1, label %229
  ]

229:                                              ; preds = %227, %227
  ret void

230:                                              ; preds = %227
  unreachable
}