; Function Attrs: nounwind uwtable
define hidden void @zif_array_values(ptr noundef %0, ptr noundef writeonly captures(none) %1) local_unnamed_addr #2 {
  %3 = getelementptr inbounds nuw i8, ptr %0, i64 44
  %4 = load i32, ptr %3, align 4, !tbaa !8
  %cond = icmp eq i32 %4, 1
  br i1 %cond, label %6, label %5, !prof !64

5:                                                ; preds = %2
  tail call void @zend_wrong_parameters_count_error(i32 noundef 1, i32 noundef 1) #21
  br label %11

6:                                                ; preds = %2
  %7 = getelementptr inbounds nuw i8, ptr %0, i64 80
  %8 = getelementptr inbounds nuw i8, ptr %0, i64 88
  %9 = load i8, ptr %8, align 8, !tbaa !8
  %10 = icmp eq i8 %9, 7
  br i1 %10, label %.critedge, label %11, !prof !10

11:                                               ; preds = %5, %6
  %.056.ph = phi i32 [ 9, %6 ], [ 1, %5 ]
  %.055.ph = phi i32 [ 6, %6 ], [ 0, %5 ]
  %.054.ph = phi ptr [ %7, %6 ], [ null, %5 ]
  %.0.ph = phi i32 [ 1, %6 ], [ 0, %5 ]
  tail call void @zend_wrong_parameter_error(i32 noundef %.056.ph, i32 noundef %.0.ph, ptr noundef null, i32 noundef %.055.ph, ptr noundef %.054.ph) #21
  br label %40

.critedge:                                        ; preds = %6
  %12 = load ptr, ptr %7, align 8, !tbaa !8
  %13 = getelementptr inbounds nuw i8, ptr %12, i64 28
  %14 = load i32, ptr %13, align 4, !tbaa !16
  %15 = zext i32 %14 to i64
  %.not61 = icmp eq i32 %14, 0
  br i1 %.not61, label %16, label %18

16:                                               ; preds = %.critedge
  store ptr @zend_empty_array, ptr %1, align 8, !tbaa !8
  %17 = getelementptr inbounds nuw i8, ptr %1, i64 8
  store i32 7, ptr %17, align 8, !tbaa !8
  br label %40

18:                                               ; preds = %.critedge
  %19 = getelementptr inbounds nuw i8, ptr %12, i64 8
  %20 = load i32, ptr %19, align 8, !tbaa !8
  %21 = and i32 %20, 4
  %.not62 = icmp eq i32 %21, 0
  br i1 %.not62, label %37, label %22

22:                                               ; preds = %18
  %23 = getelementptr inbounds nuw i8, ptr %12, i64 24
  %24 = load i32, ptr %23, align 8, !tbaa !19
  %25 = icmp eq i32 %24, %14
  br i1 %25, label %26, label %37

26:                                               ; preds = %22
  %27 = getelementptr inbounds nuw i8, ptr %12, i64 40
  %28 = load i64, ptr %27, align 8, !tbaa !123
  %29 = icmp eq i64 %28, %15
  br i1 %29, label %30, label %37

30:                                               ; preds = %26
  %31 = load i32, ptr %8, align 8, !tbaa !8
  store ptr %12, ptr %1, align 8, !tbaa !8
  %32 = getelementptr inbounds nuw i8, ptr %1, i64 8
  store i32 %31, ptr %32, align 8, !tbaa !8
  %33 = and i32 %31, 65280
  %.not63 = icmp eq i32 %33, 0
  br i1 %.not63, label %40, label %34

34:                                               ; preds = %30
  %35 = load i32, ptr %12, align 4, !tbaa !11
  %36 = add i32 %35, 1
  store i32 %36, ptr %12, align 4, !tbaa !11
  br label %40

37:                                               ; preds = %26, %22, %18
  %38 = tail call ptr @zend_array_to_list(ptr noundef nonnull %12) #21
  store ptr %38, ptr %1, align 8, !tbaa !8
  %39 = getelementptr inbounds nuw i8, ptr %1, i64 8
  store i32 775, ptr %39, align 8, !tbaa !8
  br label %40

40:                                               ; preds = %11, %30, %34, %37, %16
  ret void
}